target datalayout = "e-m:e-p270:32:32-p271:32:32-p272:64:64-i64:64-i128:128-f80:128-n8:16:32:64-S128"
target triple = "x86_64-pc-linux-gnu"

; Function Attrs: nounwind uwtable
define i64 @COVER_sum(ptr noundef %0, i32 noundef %1) #0 {
  %3 = alloca ptr, align 8
  %4 = alloca i32, align 4
  %5 = alloca i64, align 8
  %6 = alloca i32, align 4
  store ptr %0, ptr %3, align 8, !tbaa !3
  store i32 %1, ptr %4, align 4, !tbaa !8
  call void @llvm.lifetime.start.p0(i64 8, ptr %5) #10
  store i64 0, ptr %5, align 8, !tbaa !10
  call void @llvm.lifetime.start.p0(i64 4, ptr %6) #10
  store i32 0, ptr %6, align 4, !tbaa !8
  br label %7

7:                                                ; preds = %19, %2
  %8 = load i32, ptr %6, align 4, !tbaa !8
  %9 = load i32, ptr %4, align 4, !tbaa !8
  %10 = icmp ult i32 %8, %9
  br i1 %10, label %11, label %22

11:                                               ; preds = %7
  %12 = load ptr, ptr %3, align 8, !tbaa !3
  %13 = load i32, ptr %6, align 4, !tbaa !8
  %14 = zext i32 %13 to i64
  %15 = getelementptr inbounds nuw i64, ptr %12, i64 %14
  %16 = load i64, ptr %15, align 8, !tbaa !10
  %17 = load i64, ptr %5, align 8, !tbaa !10
  %18 = add i64 %17, %16
  store i64 %18, ptr %5, align 8, !tbaa !10
  br label %19

19:                                               ; preds = %11
  %20 = load i32, ptr %6, align 4, !tbaa !8
  %21 = add i32 %20, 1
  store i32 %21, ptr %6, align 4, !tbaa !8
  br label %7, !llvm.loop !12

22:                                               ; preds = %7
  %23 = load i64, ptr %5, align 8, !tbaa !10
  call void @llvm.lifetime.end.p0(i64 4, ptr %6) #10
  call void @llvm.lifetime.end.p0(i64 8, ptr %5) #10
  ret i64 %23
}